
CAN_protocol_CM7.elf:     file format elf32-littlearm

Sections:
Idx Name          Size      VMA       LMA       File off  Algn
  0 .isr_vector   00000298  08000000  08000000  00001000  2**0
                  CONTENTS, ALLOC, LOAD, READONLY, DATA
  1 .text         00000610  08000298  08000298  00001298  2**2
                  CONTENTS, ALLOC, LOAD, READONLY, CODE
  2 .rodata       0000000c  080008a8  080008a8  000018a8  2**2
                  CONTENTS, ALLOC, LOAD, READONLY, DATA
  3 .ARM.extab    00000000  080008b4  080008b4  00002004  2**0
                  CONTENTS, READONLY
  4 .ARM          00000000  080008b4  080008b4  00002004  2**0
                  CONTENTS, READONLY
  5 .preinit_array 00000000  080008b4  080008b4  00002004  2**0
                  CONTENTS, ALLOC, LOAD, DATA
  6 .init_array   00000004  080008b4  080008b4  000018b4  2**2
                  CONTENTS, ALLOC, LOAD, READONLY, DATA
  7 .fini_array   00000004  080008b8  080008b8  000018b8  2**2
                  CONTENTS, ALLOC, LOAD, READONLY, DATA
  8 .data         00000004  24000000  080008bc  00002000  2**0
                  CONTENTS, ALLOC, LOAD, DATA
  9 .bss          00000020  24000004  080008c0  00002004  2**2
                  ALLOC
 10 ._user_heap_stack 00000604  24000024  080008c0  00002024  2**0
                  ALLOC
 11 .ARM.attributes 0000002e  00000000  00000000  00002004  2**0
                  CONTENTS, READONLY
 12 .debug_info   000029df  00000000  00000000  00002032  2**0
                  CONTENTS, READONLY, DEBUGGING, OCTETS
 13 .debug_abbrev 0000061d  00000000  00000000  00004a11  2**0
                  CONTENTS, READONLY, DEBUGGING, OCTETS
 14 .debug_aranges 00000300  00000000  00000000  00005030  2**3
                  CONTENTS, READONLY, DEBUGGING, OCTETS
 15 .debug_rnglists 0000022f  00000000  00000000  00005330  2**0
                  CONTENTS, READONLY, DEBUGGING, OCTETS
 16 .debug_macro  00036feb  00000000  00000000  0000555f  2**0
                  CONTENTS, READONLY, DEBUGGING, OCTETS
 17 .debug_line   0000280b  00000000  00000000  0003c54a  2**0
                  CONTENTS, READONLY, DEBUGGING, OCTETS
 18 .debug_str    001751ab  00000000  00000000  0003ed55  2**0
                  CONTENTS, READONLY, DEBUGGING, OCTETS
 19 .comment      00000043  00000000  00000000  001b3f00  2**0
                  CONTENTS, READONLY
 20 .debug_frame  00000ad8  00000000  00000000  001b3f44  2**2
                  CONTENTS, READONLY, DEBUGGING, OCTETS
 21 .debug_line_str 0000007d  00000000  00000000  001b4a1c  2**0
                  CONTENTS, READONLY, DEBUGGING, OCTETS

Disassembly of section .text:

08000298 <__do_global_dtors_aux>:
 8000298:	b510      	push	{r4, lr}
 800029a:	4c05      	ldr	r4, [pc, #20]	@ (80002b0 <__do_global_dtors_aux+0x18>)
 800029c:	7823      	ldrb	r3, [r4, #0]
 800029e:	b933      	cbnz	r3, 80002ae <__do_global_dtors_aux+0x16>
 80002a0:	4b04      	ldr	r3, [pc, #16]	@ (80002b4 <__do_global_dtors_aux+0x1c>)
 80002a2:	b113      	cbz	r3, 80002aa <__do_global_dtors_aux+0x12>
 80002a4:	4804      	ldr	r0, [pc, #16]	@ (80002b8 <__do_global_dtors_aux+0x20>)
 80002a6:	f3af 8000 	nop.w
 80002aa:	2301      	movs	r3, #1
 80002ac:	7023      	strb	r3, [r4, #0]
 80002ae:	bd10      	pop	{r4, pc}
 80002b0:	24000004 	.word	0x24000004
 80002b4:	00000000 	.word	0x00000000
 80002b8:	08000890 	.word	0x08000890

080002bc <frame_dummy>:
 80002bc:	b508      	push	{r3, lr}
 80002be:	4b03      	ldr	r3, [pc, #12]	@ (80002cc <frame_dummy+0x10>)
 80002c0:	b11b      	cbz	r3, 80002ca <frame_dummy+0xe>
 80002c2:	4903      	ldr	r1, [pc, #12]	@ (80002d0 <frame_dummy+0x14>)
 80002c4:	4803      	ldr	r0, [pc, #12]	@ (80002d4 <frame_dummy+0x18>)
 80002c6:	f3af 8000 	nop.w
 80002ca:	bd08      	pop	{r3, pc}
 80002cc:	00000000 	.word	0x00000000
 80002d0:	24000008 	.word	0x24000008
 80002d4:	08000890 	.word	0x08000890

080002d8 <SystemInit>:
  *         configuration.
  * @param  None
  * @retval None
  */
void SystemInit (void)
{
 80002d8:	b480      	push	{r7}
 80002da:	af00      	add	r7, sp, #0
  /* FPU settings ------------------------------------------------------------*/
  #if (__FPU_PRESENT == 1) && (__FPU_USED == 1)
    SCB->CPACR |= ((3UL << (10*2))|(3UL << (11*2)));  /* set CP10 and CP11 Full Access */
 80002dc:	4b49      	ldr	r3, [pc, #292]	@ (8000404 <SystemInit+0x12c>)
 80002de:	f8d3 3088 	ldr.w	r3, [r3, #136]	@ 0x88
 80002e2:	4a48      	ldr	r2, [pc, #288]	@ (8000404 <SystemInit+0x12c>)
 80002e4:	f443 0370 	orr.w	r3, r3, #15728640	@ 0xf00000
 80002e8:	f8c2 3088 	str.w	r3, [r2, #136]	@ 0x88
  #endif

    /*SEVONPEND enabled so that an interrupt coming from the CPU(n) interrupt signal is
     detectable by the CPU after a WFI/WFE instruction.*/
 SCB->SCR |= SCB_SCR_SEVONPEND_Msk;
 80002ec:	4b45      	ldr	r3, [pc, #276]	@ (8000404 <SystemInit+0x12c>)
 80002ee:	691b      	ldr	r3, [r3, #16]
 80002f0:	4a44      	ldr	r2, [pc, #272]	@ (8000404 <SystemInit+0x12c>)
 80002f2:	f043 0310 	orr.w	r3, r3, #16
 80002f6:	6113      	str	r3, [r2, #16]

#if defined(CORE_CM7)
  /* Reset the RCC clock configuration to the default reset state ------------*/
   /* Increasing the CPU frequency */
  if(FLASH_LATENCY_DEFAULT  > (READ_BIT((FLASH->ACR), FLASH_ACR_LATENCY)))
 80002f8:	4b43      	ldr	r3, [pc, #268]	@ (8000408 <SystemInit+0x130>)
 80002fa:	681b      	ldr	r3, [r3, #0]
 80002fc:	f003 030f 	and.w	r3, r3, #15
 8000300:	2b06      	cmp	r3, #6
 8000302:	d807      	bhi.n	8000314 <SystemInit+0x3c>
  {
    /* Program the new number of wait states to the LATENCY bits in the FLASH_ACR register */
    MODIFY_REG(FLASH->ACR, FLASH_ACR_LATENCY, (uint32_t)(FLASH_LATENCY_DEFAULT));
 8000304:	4b40      	ldr	r3, [pc, #256]	@ (8000408 <SystemInit+0x130>)
 8000306:	681b      	ldr	r3, [r3, #0]
 8000308:	f023 030f 	bic.w	r3, r3, #15
 800030c:	4a3e      	ldr	r2, [pc, #248]	@ (8000408 <SystemInit+0x130>)
 800030e:	f043 0307 	orr.w	r3, r3, #7
 8000312:	6013      	str	r3, [r2, #0]
  }

  /* Set HSION bit */
  RCC->CR |= RCC_CR_HSION;
 8000314:	4b3d      	ldr	r3, [pc, #244]	@ (800040c <SystemInit+0x134>)
 8000316:	681b      	ldr	r3, [r3, #0]
 8000318:	4a3c      	ldr	r2, [pc, #240]	@ (800040c <SystemInit+0x134>)
 800031a:	f043 0301 	orr.w	r3, r3, #1
 800031e:	6013      	str	r3, [r2, #0]

  /* Reset CFGR register */
  RCC->CFGR = 0x00000000;
 8000320:	4b3a      	ldr	r3, [pc, #232]	@ (800040c <SystemInit+0x134>)
 8000322:	2200      	movs	r2, #0
 8000324:	611a      	str	r2, [r3, #16]

  /* Reset HSEON, HSECSSON, CSION, HSI48ON, CSIKERON, PLL1ON, PLL2ON and PLL3ON bits */
  RCC->CR &= 0xEAF6ED7FU;
 8000326:	4b39      	ldr	r3, [pc, #228]	@ (800040c <SystemInit+0x134>)
 8000328:	681a      	ldr	r2, [r3, #0]
 800032a:	4938      	ldr	r1, [pc, #224]	@ (800040c <SystemInit+0x134>)
 800032c:	4b38      	ldr	r3, [pc, #224]	@ (8000410 <SystemInit+0x138>)
 800032e:	4013      	ands	r3, r2
 8000330:	600b      	str	r3, [r1, #0]

   /* Decreasing the number of wait states because of lower CPU frequency */
  if(FLASH_LATENCY_DEFAULT  < (READ_BIT((FLASH->ACR), FLASH_ACR_LATENCY)))
 8000332:	4b35      	ldr	r3, [pc, #212]	@ (8000408 <SystemInit+0x130>)
 8000334:	681b      	ldr	r3, [r3, #0]
 8000336:	f003 0308 	and.w	r3, r3, #8
 800033a:	2b00      	cmp	r3, #0
 800033c:	d007      	beq.n	800034e <SystemInit+0x76>
  {
    /* Program the new number of wait states to the LATENCY bits in the FLASH_ACR register */
    MODIFY_REG(FLASH->ACR, FLASH_ACR_LATENCY, (uint32_t)(FLASH_LATENCY_DEFAULT));
 800033e:	4b32      	ldr	r3, [pc, #200]	@ (8000408 <SystemInit+0x130>)
 8000340:	681b      	ldr	r3, [r3, #0]
 8000342:	f023 030f 	bic.w	r3, r3, #15
 8000346:	4a30      	ldr	r2, [pc, #192]	@ (8000408 <SystemInit+0x130>)
 8000348:	f043 0307 	orr.w	r3, r3, #7
 800034c:	6013      	str	r3, [r2, #0]
  }

  /* Reset D1CFGR register */
  RCC->D1CFGR = 0x00000000;
 800034e:	4b2f      	ldr	r3, [pc, #188]	@ (800040c <SystemInit+0x134>)
 8000350:	2200      	movs	r2, #0
 8000352:	619a      	str	r2, [r3, #24]

  /* Reset D2CFGR register */
  RCC->D2CFGR = 0x00000000;
 8000354:	4b2d      	ldr	r3, [pc, #180]	@ (800040c <SystemInit+0x134>)
 8000356:	2200      	movs	r2, #0
 8000358:	61da      	str	r2, [r3, #28]

  /* Reset D3CFGR register */
  RCC->D3CFGR = 0x00000000;
 800035a:	4b2c      	ldr	r3, [pc, #176]	@ (800040c <SystemInit+0x134>)
 800035c:	2200      	movs	r2, #0
 800035e:	621a      	str	r2, [r3, #32]

  /* Reset PLLCKSELR register */
  RCC->PLLCKSELR = 0x02020200;
 8000360:	4b2a      	ldr	r3, [pc, #168]	@ (800040c <SystemInit+0x134>)
 8000362:	4a2c      	ldr	r2, [pc, #176]	@ (8000414 <SystemInit+0x13c>)
 8000364:	629a      	str	r2, [r3, #40]	@ 0x28

  /* Reset PLLCFGR register */
  RCC->PLLCFGR = 0x01FF0000;
 8000366:	4b29      	ldr	r3, [pc, #164]	@ (800040c <SystemInit+0x134>)
 8000368:	4a2b      	ldr	r2, [pc, #172]	@ (8000418 <SystemInit+0x140>)
 800036a:	62da      	str	r2, [r3, #44]	@ 0x2c
  /* Reset PLL1DIVR register */
  RCC->PLL1DIVR = 0x01010280;
 800036c:	4b27      	ldr	r3, [pc, #156]	@ (800040c <SystemInit+0x134>)
 800036e:	4a2b      	ldr	r2, [pc, #172]	@ (800041c <SystemInit+0x144>)
 8000370:	631a      	str	r2, [r3, #48]	@ 0x30
  /* Reset PLL1FRACR register */
  RCC->PLL1FRACR = 0x00000000;
 8000372:	4b26      	ldr	r3, [pc, #152]	@ (800040c <SystemInit+0x134>)
 8000374:	2200      	movs	r2, #0
 8000376:	635a      	str	r2, [r3, #52]	@ 0x34

  /* Reset PLL2DIVR register */
  RCC->PLL2DIVR = 0x01010280;
 8000378:	4b24      	ldr	r3, [pc, #144]	@ (800040c <SystemInit+0x134>)
 800037a:	4a28      	ldr	r2, [pc, #160]	@ (800041c <SystemInit+0x144>)
 800037c:	639a      	str	r2, [r3, #56]	@ 0x38

  /* Reset PLL2FRACR register */

  RCC->PLL2FRACR = 0x00000000;
 800037e:	4b23      	ldr	r3, [pc, #140]	@ (800040c <SystemInit+0x134>)
 8000380:	2200      	movs	r2, #0
 8000382:	63da      	str	r2, [r3, #60]	@ 0x3c
  /* Reset PLL3DIVR register */
  RCC->PLL3DIVR = 0x01010280;
 8000384:	4b21      	ldr	r3, [pc, #132]	@ (800040c <SystemInit+0x134>)
 8000386:	4a25      	ldr	r2, [pc, #148]	@ (800041c <SystemInit+0x144>)
 8000388:	641a      	str	r2, [r3, #64]	@ 0x40

  /* Reset PLL3FRACR register */
  RCC->PLL3FRACR = 0x00000000;
 800038a:	4b20      	ldr	r3, [pc, #128]	@ (800040c <SystemInit+0x134>)
 800038c:	2200      	movs	r2, #0
 800038e:	645a      	str	r2, [r3, #68]	@ 0x44

  /* Reset HSEBYP bit */
  RCC->CR &= 0xFFFBFFFFU;
 8000390:	4b1e      	ldr	r3, [pc, #120]	@ (800040c <SystemInit+0x134>)
 8000392:	681b      	ldr	r3, [r3, #0]
 8000394:	4a1d      	ldr	r2, [pc, #116]	@ (800040c <SystemInit+0x134>)
 8000396:	f423 2380 	bic.w	r3, r3, #262144	@ 0x40000
 800039a:	6013      	str	r3, [r2, #0]

  /* Disable all interrupts */
  RCC->CIER = 0x00000000;
 800039c:	4b1b      	ldr	r3, [pc, #108]	@ (800040c <SystemInit+0x134>)
 800039e:	2200      	movs	r2, #0
 80003a0:	661a      	str	r2, [r3, #96]	@ 0x60

  /* Enable CortexM7 HSEM EXTI line (line 78)*/
  EXTI_D2->EMR3 |= 0x4000UL;
 80003a2:	4b1f      	ldr	r3, [pc, #124]	@ (8000420 <SystemInit+0x148>)
 80003a4:	6a5b      	ldr	r3, [r3, #36]	@ 0x24
 80003a6:	4a1e      	ldr	r2, [pc, #120]	@ (8000420 <SystemInit+0x148>)
 80003a8:	f443 4380 	orr.w	r3, r3, #16384	@ 0x4000
 80003ac:	6253      	str	r3, [r2, #36]	@ 0x24

  if((DBGMCU->IDCODE & 0xFFFF0000U) < 0x20000000U)
 80003ae:	4b1d      	ldr	r3, [pc, #116]	@ (8000424 <SystemInit+0x14c>)
 80003b0:	681a      	ldr	r2, [r3, #0]
 80003b2:	4b1d      	ldr	r3, [pc, #116]	@ (8000428 <SystemInit+0x150>)
 80003b4:	4013      	ands	r3, r2
 80003b6:	f1b3 5f00 	cmp.w	r3, #536870912	@ 0x20000000
 80003ba:	d202      	bcs.n	80003c2 <SystemInit+0xea>
  {
    /* if stm32h7 revY*/
    /* Change  the switch matrix read issuing capability to 1 for the AXI SRAM target (Target 7) */
    *((__IO uint32_t*)0x51008108) = 0x000000001U;
 80003bc:	4b1b      	ldr	r3, [pc, #108]	@ (800042c <SystemInit+0x154>)
 80003be:	2201      	movs	r2, #1
 80003c0:	601a      	str	r2, [r3, #0]
#if defined(USER_VECT_TAB_ADDRESS)
  SCB->VTOR = VECT_TAB_BASE_ADDRESS | VECT_TAB_OFFSET; /* Vector Table Relocation in Internal D2 AXI-RAM or in Internal FLASH */
#endif /* USER_VECT_TAB_ADDRESS */

#elif defined(CORE_CM7)
  if(READ_BIT(RCC->AHB3ENR, RCC_AHB3ENR_FMCEN) == 0U)
 80003c2:	4b12      	ldr	r3, [pc, #72]	@ (800040c <SystemInit+0x134>)
 80003c4:	f8d3 30d4 	ldr.w	r3, [r3, #212]	@ 0xd4
 80003c8:	f403 5380 	and.w	r3, r3, #4096	@ 0x1000
 80003cc:	2b00      	cmp	r3, #0
 80003ce:	d113      	bne.n	80003f8 <SystemInit+0x120>
  {
    /* Enable the FMC interface clock */
    SET_BIT(RCC->AHB3ENR, RCC_AHB3ENR_FMCEN);
 80003d0:	4b0e      	ldr	r3, [pc, #56]	@ (800040c <SystemInit+0x134>)
 80003d2:	f8d3 30d4 	ldr.w	r3, [r3, #212]	@ 0xd4
 80003d6:	4a0d      	ldr	r2, [pc, #52]	@ (800040c <SystemInit+0x134>)
 80003d8:	f443 5380 	orr.w	r3, r3, #4096	@ 0x1000
 80003dc:	f8c2 30d4 	str.w	r3, [r2, #212]	@ 0xd4
    /*
     * Disable the FMC bank1 (enabled after reset).
     * This, prevents CPU speculation access on this bank which blocks the use of FMC during
     * 24us. During this time the others FMC master (such as LTDC) cannot use it!
     */
    FMC_Bank1_R->BTCR[0] = 0x000030D2;
 80003e0:	4b13      	ldr	r3, [pc, #76]	@ (8000430 <SystemInit+0x158>)
 80003e2:	f243 02d2 	movw	r2, #12498	@ 0x30d2
 80003e6:	601a      	str	r2, [r3, #0]

    /* Disable the FMC interface clock */
    CLEAR_BIT(RCC->AHB3ENR, RCC_AHB3ENR_FMCEN);
 80003e8:	4b08      	ldr	r3, [pc, #32]	@ (800040c <SystemInit+0x134>)
 80003ea:	f8d3 30d4 	ldr.w	r3, [r3, #212]	@ 0xd4
 80003ee:	4a07      	ldr	r2, [pc, #28]	@ (800040c <SystemInit+0x134>)
 80003f0:	f423 5380 	bic.w	r3, r3, #4096	@ 0x1000
 80003f4:	f8c2 30d4 	str.w	r3, [r2, #212]	@ 0xd4
#endif /* USER_VECT_TAB_ADDRESS */

#else
#error Please #define CORE_CM4 or CORE_CM7
#endif /* CORE_CM4 */
}
 80003f8:	bf00      	nop
 80003fa:	46bd      	mov	sp, r7
 80003fc:	f85d 7b04 	ldr.w	r7, [sp], #4
 8000400:	4770      	bx	lr
 8000402:	bf00      	nop
 8000404:	e000ed00 	.word	0xe000ed00
 8000408:	52002000 	.word	0x52002000
 800040c:	58024400 	.word	0x58024400
 8000410:	eaf6ed7f 	.word	0xeaf6ed7f
 8000414:	02020200 	.word	0x02020200
 8000418:	01ff0000 	.word	0x01ff0000
 800041c:	01010280 	.word	0x01010280
 8000420:	580000c0 	.word	0x580000c0
 8000424:	5c001000 	.word	0x5c001000
 8000428:	ffff0000 	.word	0xffff0000
 800042c:	51008108 	.word	0x51008108
 8000430:	52004000 	.word	0x52004000

08000434 <ExitRun0Mode>:
  *
  * @param  None
  * @retval None
  */
void ExitRun0Mode(void)
{
 8000434:	b480      	push	{r7}
 8000436:	af00      	add	r7, sp, #0
  /* Wait till voltage level flag is set */
  while ((PWR->CSR1 & PWR_CSR1_ACTVOSRDY) == 0U)
  {}
#elif defined(USE_PWR_DIRECT_SMPS_SUPPLY) && defined(SMPS)
  /* Exit Run* mode */
  PWR->CR3 &= ~(PWR_CR3_LDOEN);
 8000438:	4b09      	ldr	r3, [pc, #36]	@ (8000460 <ExitRun0Mode+0x2c>)
 800043a:	68db      	ldr	r3, [r3, #12]
 800043c:	4a08      	ldr	r2, [pc, #32]	@ (8000460 <ExitRun0Mode+0x2c>)
 800043e:	f023 0302 	bic.w	r3, r3, #2
 8000442:	60d3      	str	r3, [r2, #12]
  /* Wait till voltage level flag is set */
  while ((PWR->CSR1 & PWR_CSR1_ACTVOSRDY) == 0U)
 8000444:	bf00      	nop
 8000446:	4b06      	ldr	r3, [pc, #24]	@ (8000460 <ExitRun0Mode+0x2c>)
 8000448:	685b      	ldr	r3, [r3, #4]
 800044a:	f403 5300 	and.w	r3, r3, #8192	@ 0x2000
 800044e:	2b00      	cmp	r3, #0
 8000450:	d0f9      	beq.n	8000446 <ExitRun0Mode+0x12>
  while ((PWR->CSR1 & PWR_CSR1_ACTVOSRDY) == 0U)
  {}
#else
  /* No system power supply configuration is selected at exit Run* mode */
#endif /* USE_PWR_LDO_SUPPLY */
}
 8000452:	bf00      	nop
 8000454:	bf00      	nop
 8000456:	46bd      	mov	sp, r7
 8000458:	f85d 7b04 	ldr.w	r7, [sp], #4
 800045c:	4770      	bx	lr
 800045e:	bf00      	nop
 8000460:	58024800 	.word	0x58024800

08000464 <CAN_SendBit>:

/**
 * Envía un solo bit por el pin PA8
 * @param state: DOMINANT (0) o RECESSIVE (1)
 */
void CAN_SendBit(uint8_t state) {
 8000464:	b480      	push	{r7}
 8000466:	b085      	sub	sp, #20
 8000468:	af00      	add	r7, sp, #0
 800046a:	4603      	mov	r3, r0
 800046c:	71fb      	strb	r3, [r7, #7]
   if (state == RECESSIVE) {
 800046e:	79fb      	ldrb	r3, [r7, #7]
 8000470:	2b01      	cmp	r3, #1
 8000472:	d104      	bne.n	800047e <CAN_SendBit+0x1a>
       GPIOA_BSRR = PA8_SET;    // Pone el pin en alto (1)
 8000474:	4b0b      	ldr	r3, [pc, #44]	@ (80004a4 <CAN_SendBit+0x40>)
 8000476:	f44f 7280 	mov.w	r2, #256	@ 0x100
 800047a:	601a      	str	r2, [r3, #0]
 800047c:	e003      	b.n	8000486 <CAN_SendBit+0x22>
   } else {
       GPIOA_BSRR = PA8_RESET;  // Pone el pin en bajo (0)
 800047e:	4b09      	ldr	r3, [pc, #36]	@ (80004a4 <CAN_SendBit+0x40>)
 8000480:	f04f 7280 	mov.w	r2, #16777216	@ 0x1000000
 8000484:	601a      	str	r2, [r3, #0]
 8000486:	f640 33b8 	movw	r3, #3000	@ 0xbb8
 800048a:	60fb      	str	r3, [r7, #12]
   __asm volatile (
 800048c:	68fb      	ldr	r3, [r7, #12]
 800048e:	3b01      	subs	r3, #1
 8000490:	d1fd      	bne.n	800048e <CAN_SendBit+0x2a>
 8000492:	60fb      	str	r3, [r7, #12]
}
 8000494:	bf00      	nop
   }
   delay_cycles(BIT_TIME_CYCLES);  // Mantiene el nivel durante el tiempo de un bit
}
 8000496:	bf00      	nop
 8000498:	3714      	adds	r7, #20
 800049a:	46bd      	mov	sp, r7
 800049c:	f85d 7b04 	ldr.w	r7, [sp], #4
 80004a0:	4770      	bx	lr
 80004a2:	bf00      	nop
 80004a4:	58020018 	.word	0x58020018

080004a8 <CAN_SendBit_Stuffed>:
 * Envía un bit aplicando la regla de "bit stuffing"
 * Bit stuffing: si hay 5 bits iguales seguidos, se inserta uno contrario
 * @param state: el bit a enviar (DOMINANT o RECESSIVE)
 * @param stuff_count: contador de bits iguales consecutivos
 */
void CAN_SendBit_Stuffed(uint8_t state, int *stuff_count) {
 80004a8:	b580      	push	{r7, lr}
 80004aa:	b084      	sub	sp, #16
 80004ac:	af00      	add	r7, sp, #0
 80004ae:	4603      	mov	r3, r0
 80004b0:	6039      	str	r1, [r7, #0]
 80004b2:	71fb      	strb	r3, [r7, #7]
    // 1. Actualizar el contador de bits consecutivos
    if (state == DOMINANT) {
 80004b4:	79fb      	ldrb	r3, [r7, #7]
 80004b6:	2b00      	cmp	r3, #0
 80004b8:	d103      	bne.n	80004c2 <CAN_SendBit_Stuffed+0x1a>
        *stuff_count = 0;  // Si enviamos un 0, reiniciamos el contador
 80004ba:	683b      	ldr	r3, [r7, #0]
 80004bc:	2200      	movs	r2, #0
 80004be:	601a      	str	r2, [r3, #0]
 80004c0:	e004      	b.n	80004cc <CAN_SendBit_Stuffed+0x24>
    } else {
        (*stuff_count)++;  // Si enviamos un 1, aumentamos el contador
 80004c2:	683b      	ldr	r3, [r7, #0]
 80004c4:	681b      	ldr	r3, [r3, #0]
 80004c6:	1c5a      	adds	r2, r3, #1
 80004c8:	683b      	ldr	r3, [r7, #0]
 80004ca:	601a      	str	r2, [r3, #0]
    }

    // 2. Enviar el bit solicitado
    if (state == RECESSIVE) {
 80004cc:	79fb      	ldrb	r3, [r7, #7]
 80004ce:	2b01      	cmp	r3, #1
 80004d0:	d104      	bne.n	80004dc <CAN_SendBit_Stuffed+0x34>
        GPIOA_BSRR = PA8_SET;
 80004d2:	4b0f      	ldr	r3, [pc, #60]	@ (8000510 <CAN_SendBit_Stuffed+0x68>)
 80004d4:	f44f 7280 	mov.w	r2, #256	@ 0x100
 80004d8:	601a      	str	r2, [r3, #0]
 80004da:	e003      	b.n	80004e4 <CAN_SendBit_Stuffed+0x3c>
    } else {
        GPIOA_BSRR = PA8_RESET;
 80004dc:	4b0c      	ldr	r3, [pc, #48]	@ (8000510 <CAN_SendBit_Stuffed+0x68>)
 80004de:	f04f 7280 	mov.w	r2, #16777216	@ 0x1000000
 80004e2:	601a      	str	r2, [r3, #0]
 80004e4:	f640 33b8 	movw	r3, #3000	@ 0xbb8
 80004e8:	60fb      	str	r3, [r7, #12]
   __asm volatile (
 80004ea:	68fb      	ldr	r3, [r7, #12]
 80004ec:	3b01      	subs	r3, #1
 80004ee:	d1fd      	bne.n	80004ec <CAN_SendBit_Stuffed+0x44>
 80004f0:	60fb      	str	r3, [r7, #12]
}
 80004f2:	bf00      	nop
    }
    delay_cycles(BIT_TIME_CYCLES);

    // 3. Si llevamos 5 bits iguales, insertar un bit de relleno
    if (*stuff_count == 5) {
 80004f4:	683b      	ldr	r3, [r7, #0]
 80004f6:	681b      	ldr	r3, [r3, #0]
 80004f8:	2b05      	cmp	r3, #5
 80004fa:	d105      	bne.n	8000508 <CAN_SendBit_Stuffed+0x60>
        CAN_SendBit(DOMINANT);  // Insertamos un 0 para romper la secuencia
 80004fc:	2000      	movs	r0, #0
 80004fe:	f7ff ffb1 	bl	8000464 <CAN_SendBit>
        *stuff_count = 0;       // Reiniciamos el contador
 8000502:	683b      	ldr	r3, [r7, #0]
 8000504:	2200      	movs	r2, #0
 8000506:	601a      	str	r2, [r3, #0]
    }
}
 8000508:	bf00      	nop
 800050a:	3710      	adds	r7, #16
 800050c:	46bd      	mov	sp, r7
 800050e:	bd80      	pop	{r7, pc}
 8000510:	58020018 	.word	0x58020018

08000514 <CAN_CalculateCRC>:
/**
 * Calcula un CRC simplificado (no es el CRC real de CAN, solo para demostración)
 * @param frame: puntero a la trama CAN
 * @return: un valor de 15 bits que simula el CRC
 */
uint16_t CAN_CalculateCRC(CAN_Frame_t *frame) {
 8000514:	b480      	push	{r7}
 8000516:	b085      	sub	sp, #20
 8000518:	af00      	add	r7, sp, #0
 800051a:	6078      	str	r0, [r7, #4]
   uint16_t crc = 0;
 800051c:	2300      	movs	r3, #0
 800051e:	81fb      	strh	r3, [r7, #14]
   // Suma todos los bytes de datos
   for(int i = 0; i < frame->DLC; i++) {
 8000520:	2300      	movs	r3, #0
 8000522:	60bb      	str	r3, [r7, #8]
 8000524:	e00b      	b.n	800053e <CAN_CalculateCRC+0x2a>
       crc += frame->Data[i];
 8000526:	687a      	ldr	r2, [r7, #4]
 8000528:	68bb      	ldr	r3, [r7, #8]
 800052a:	4413      	add	r3, r2
 800052c:	3303      	adds	r3, #3
 800052e:	781b      	ldrb	r3, [r3, #0]
 8000530:	461a      	mov	r2, r3
 8000532:	89fb      	ldrh	r3, [r7, #14]
 8000534:	4413      	add	r3, r2
 8000536:	81fb      	strh	r3, [r7, #14]
   for(int i = 0; i < frame->DLC; i++) {
 8000538:	68bb      	ldr	r3, [r7, #8]
 800053a:	3301      	adds	r3, #1
 800053c:	60bb      	str	r3, [r7, #8]
 800053e:	687b      	ldr	r3, [r7, #4]
 8000540:	789b      	ldrb	r3, [r3, #2]
 8000542:	461a      	mov	r2, r3
 8000544:	68bb      	ldr	r3, [r7, #8]
 8000546:	4293      	cmp	r3, r2
 8000548:	dbed      	blt.n	8000526 <CAN_CalculateCRC+0x12>
   }
   return crc & 0x7FFF;  // Solo usa 15 bits (como el CRC real de CAN)
 800054a:	89fb      	ldrh	r3, [r7, #14]
 800054c:	f3c3 030e 	ubfx	r3, r3, #0, #15
 8000550:	b29b      	uxth	r3, r3
}
 8000552:	4618      	mov	r0, r3
 8000554:	3714      	adds	r7, #20
 8000556:	46bd      	mov	sp, r7
 8000558:	f85d 7b04 	ldr.w	r7, [sp], #4
 800055c:	4770      	bx	lr

0800055e <CAN_SendFrame>:

/**
 * Envía una trama CAN completa siguiendo el formato estándar
 * @param frame: puntero a la trama que se va a enviar
 */
void CAN_SendFrame(CAN_Frame_t *frame) {
 800055e:	b580      	push	{r7, lr}
 8000560:	b086      	sub	sp, #24
 8000562:	af00      	add	r7, sp, #0
 8000564:	6078      	str	r0, [r7, #4]
    int i, j;
    uint16_t crc;
    int stuff_count = 0;  // Contador para el bit stuffing
 8000566:	2300      	movs	r3, #0
 8000568:	60bb      	str	r3, [r7, #8]

    // -----------------------------------------------
    // 1. INTERFRAME SPACE (espacio entre tramas)
    // -----------------------------------------------
    // 3 bits en alto (recesivos) para separar tramas
    for(i = 0; i < 3; i++) CAN_SendBit(RECESSIVE);
 800056a:	2300      	movs	r3, #0
 800056c:	617b      	str	r3, [r7, #20]
 800056e:	e005      	b.n	800057c <CAN_SendFrame+0x1e>
 8000570:	2001      	movs	r0, #1
 8000572:	f7ff ff77 	bl	8000464 <CAN_SendBit>
 8000576:	697b      	ldr	r3, [r7, #20]
 8000578:	3301      	adds	r3, #1
 800057a:	617b      	str	r3, [r7, #20]
 800057c:	697b      	ldr	r3, [r7, #20]
 800057e:	2b02      	cmp	r3, #2
 8000580:	ddf6      	ble.n	8000570 <CAN_SendFrame+0x12>

    // -----------------------------------------------
    // 2. START OF FRAME (inicio de trama)
    // -----------------------------------------------
    // Un bit dominante (0) marca el inicio
    CAN_SendBit(DOMINANT);
 8000582:	2000      	movs	r0, #0
 8000584:	f7ff ff6e 	bl	8000464 <CAN_SendBit>

    // -----------------------------------------------
    // 3. ARBITRATION FIELD (identificador)
    // -----------------------------------------------
    // Envía los 11 bits del ID, del más significativo al menos significativo
    for(i = 10; i >= 0; i--)
 8000588:	230a      	movs	r3, #10
 800058a:	617b      	str	r3, [r7, #20]
 800058c:	e012      	b.n	80005b4 <CAN_SendFrame+0x56>
        CAN_SendBit_Stuffed(((frame->ID >> i) & 0x01), &stuff_count);
 800058e:	687b      	ldr	r3, [r7, #4]
 8000590:	881b      	ldrh	r3, [r3, #0]
 8000592:	461a      	mov	r2, r3
 8000594:	697b      	ldr	r3, [r7, #20]
 8000596:	fa42 f303 	asr.w	r3, r2, r3
 800059a:	b2db      	uxtb	r3, r3
 800059c:	f003 0301 	and.w	r3, r3, #1
 80005a0:	b2db      	uxtb	r3, r3
 80005a2:	f107 0208 	add.w	r2, r7, #8
 80005a6:	4611      	mov	r1, r2
 80005a8:	4618      	mov	r0, r3
 80005aa:	f7ff ff7d 	bl	80004a8 <CAN_SendBit_Stuffed>
    for(i = 10; i >= 0; i--)
 80005ae:	697b      	ldr	r3, [r7, #20]
 80005b0:	3b01      	subs	r3, #1
 80005b2:	617b      	str	r3, [r7, #20]
 80005b4:	697b      	ldr	r3, [r7, #20]
 80005b6:	2b00      	cmp	r3, #0
 80005b8:	dae9      	bge.n	800058e <CAN_SendFrame+0x30>

    // -----------------------------------------------
    // 4. CONTROL FIELD (información de control)
    // -----------------------------------------------
    CAN_SendBit_Stuffed(RECESSIVE, &stuff_count);  // RTR=1 (trama de datos)
 80005ba:	f107 0308 	add.w	r3, r7, #8
 80005be:	4619      	mov	r1, r3
 80005c0:	2001      	movs	r0, #1
 80005c2:	f7ff ff71 	bl	80004a8 <CAN_SendBit_Stuffed>
    CAN_SendBit_Stuffed(DOMINANT, &stuff_count);   // IDE=0 (ID estándar de 11 bits)
 80005c6:	f107 0308 	add.w	r3, r7, #8
 80005ca:	4619      	mov	r1, r3
 80005cc:	2000      	movs	r0, #0
 80005ce:	f7ff ff6b 	bl	80004a8 <CAN_SendBit_Stuffed>
    CAN_SendBit_Stuffed(DOMINANT, &stuff_count);   // r0=0 (bit reservado)
 80005d2:	f107 0308 	add.w	r3, r7, #8
 80005d6:	4619      	mov	r1, r3
 80005d8:	2000      	movs	r0, #0
 80005da:	f7ff ff65 	bl	80004a8 <CAN_SendBit_Stuffed>

    // Envía el DLC (cantidad de bytes de datos)
    for(i = 3; i >= 0; i--)
 80005de:	2303      	movs	r3, #3
 80005e0:	617b      	str	r3, [r7, #20]
 80005e2:	e012      	b.n	800060a <CAN_SendFrame+0xac>
        CAN_SendBit_Stuffed(((frame->DLC >> i) & 0x01), &stuff_count);
 80005e4:	687b      	ldr	r3, [r7, #4]
 80005e6:	789b      	ldrb	r3, [r3, #2]
 80005e8:	461a      	mov	r2, r3
 80005ea:	697b      	ldr	r3, [r7, #20]
 80005ec:	fa42 f303 	asr.w	r3, r2, r3
 80005f0:	b2db      	uxtb	r3, r3
 80005f2:	f003 0301 	and.w	r3, r3, #1
 80005f6:	b2db      	uxtb	r3, r3
 80005f8:	f107 0208 	add.w	r2, r7, #8
 80005fc:	4611      	mov	r1, r2
 80005fe:	4618      	mov	r0, r3
 8000600:	f7ff ff52 	bl	80004a8 <CAN_SendBit_Stuffed>
    for(i = 3; i >= 0; i--)
 8000604:	697b      	ldr	r3, [r7, #20]
 8000606:	3b01      	subs	r3, #1
 8000608:	617b      	str	r3, [r7, #20]
 800060a:	697b      	ldr	r3, [r7, #20]
 800060c:	2b00      	cmp	r3, #0
 800060e:	dae9      	bge.n	80005e4 <CAN_SendFrame+0x86>

    // -----------------------------------------------
    // 5. DATA FIELD (los datos)
    // -----------------------------------------------
    // Envía cada byte de datos, bit por bit
    for(i = 0; i < frame->DLC; i++) {
 8000610:	2300      	movs	r3, #0
 8000612:	617b      	str	r3, [r7, #20]
 8000614:	e01e      	b.n	8000654 <CAN_SendFrame+0xf6>
        for(j = 7; j >= 0; j--)
 8000616:	2307      	movs	r3, #7
 8000618:	613b      	str	r3, [r7, #16]
 800061a:	e015      	b.n	8000648 <CAN_SendFrame+0xea>
            CAN_SendBit_Stuffed(((frame->Data[i] >> j) & 0x01), &stuff_count);
 800061c:	687a      	ldr	r2, [r7, #4]
 800061e:	697b      	ldr	r3, [r7, #20]
 8000620:	4413      	add	r3, r2
 8000622:	3303      	adds	r3, #3
 8000624:	781b      	ldrb	r3, [r3, #0]
 8000626:	461a      	mov	r2, r3
 8000628:	693b      	ldr	r3, [r7, #16]
 800062a:	fa42 f303 	asr.w	r3, r2, r3
 800062e:	b2db      	uxtb	r3, r3
 8000630:	f003 0301 	and.w	r3, r3, #1
 8000634:	b2db      	uxtb	r3, r3
 8000636:	f107 0208 	add.w	r2, r7, #8
 800063a:	4611      	mov	r1, r2
 800063c:	4618      	mov	r0, r3
 800063e:	f7ff ff33 	bl	80004a8 <CAN_SendBit_Stuffed>
        for(j = 7; j >= 0; j--)
 8000642:	693b      	ldr	r3, [r7, #16]
 8000644:	3b01      	subs	r3, #1
 8000646:	613b      	str	r3, [r7, #16]
 8000648:	693b      	ldr	r3, [r7, #16]
 800064a:	2b00      	cmp	r3, #0
 800064c:	dae6      	bge.n	800061c <CAN_SendFrame+0xbe>
    for(i = 0; i < frame->DLC; i++) {
 800064e:	697b      	ldr	r3, [r7, #20]
 8000650:	3301      	adds	r3, #1
 8000652:	617b      	str	r3, [r7, #20]
 8000654:	687b      	ldr	r3, [r7, #4]
 8000656:	789b      	ldrb	r3, [r3, #2]
 8000658:	461a      	mov	r2, r3
 800065a:	697b      	ldr	r3, [r7, #20]
 800065c:	4293      	cmp	r3, r2
 800065e:	dbda      	blt.n	8000616 <CAN_SendFrame+0xb8>

    // -----------------------------------------------
    // 6. CRC FIELD (verificación de errores)
    // -----------------------------------------------
    // Calcula y envía el CRC de 15 bits
    crc = CAN_CalculateCRC(frame);
 8000660:	6878      	ldr	r0, [r7, #4]
 8000662:	f7ff ff57 	bl	8000514 <CAN_CalculateCRC>
 8000666:	4603      	mov	r3, r0
 8000668:	81fb      	strh	r3, [r7, #14]
    for(i = 14; i >= 0; i--)
 800066a:	230e      	movs	r3, #14
 800066c:	617b      	str	r3, [r7, #20]
 800066e:	e010      	b.n	8000692 <CAN_SendFrame+0x134>
        CAN_SendBit_Stuffed(((crc >> i) & 0x01), &stuff_count);
 8000670:	89fa      	ldrh	r2, [r7, #14]
 8000672:	697b      	ldr	r3, [r7, #20]
 8000674:	fa42 f303 	asr.w	r3, r2, r3
 8000678:	b2db      	uxtb	r3, r3
 800067a:	f003 0301 	and.w	r3, r3, #1
 800067e:	b2db      	uxtb	r3, r3
 8000680:	f107 0208 	add.w	r2, r7, #8
 8000684:	4611      	mov	r1, r2
 8000686:	4618      	mov	r0, r3
 8000688:	f7ff ff0e 	bl	80004a8 <CAN_SendBit_Stuffed>
    for(i = 14; i >= 0; i--)
 800068c:	697b      	ldr	r3, [r7, #20]
 800068e:	3b01      	subs	r3, #1
 8000690:	617b      	str	r3, [r7, #20]
 8000692:	697b      	ldr	r3, [r7, #20]
 8000694:	2b00      	cmp	r3, #0
 8000696:	daeb      	bge.n	8000670 <CAN_SendFrame+0x112>
    // NOTA: A partir de aquí ya NO se aplica bit stuffing

    // -----------------------------------------------
    // 7. CRC DELIMITER (separador del CRC)
    // -----------------------------------------------
    CAN_SendBit(RECESSIVE);  // Siempre es 1
 8000698:	2001      	movs	r0, #1
 800069a:	f7ff fee3 	bl	8000464 <CAN_SendBit>

    // -----------------------------------------------
    // 8. ACK FIELD (confirmación)
    // -----------------------------------------------
    CAN_SendBit(RECESSIVE);  // ACK Slot (el receptor lo pondría en 0)
 800069e:	2001      	movs	r0, #1
 80006a0:	f7ff fee0 	bl	8000464 <CAN_SendBit>
    CAN_SendBit(RECESSIVE);  // ACK Delimiter (siempre 1)
 80006a4:	2001      	movs	r0, #1
 80006a6:	f7ff fedd 	bl	8000464 <CAN_SendBit>

    // -----------------------------------------------
    // 9. END OF FRAME (fin de trama)
    // -----------------------------------------------
    // 7 bits recesivos (en alto) marcan el final
    for(i = 0; i < 7; i++)
 80006aa:	2300      	movs	r3, #0
 80006ac:	617b      	str	r3, [r7, #20]
 80006ae:	e005      	b.n	80006bc <CAN_SendFrame+0x15e>
        CAN_SendBit(RECESSIVE);
 80006b0:	2001      	movs	r0, #1
 80006b2:	f7ff fed7 	bl	8000464 <CAN_SendBit>
    for(i = 0; i < 7; i++)
 80006b6:	697b      	ldr	r3, [r7, #20]
 80006b8:	3301      	adds	r3, #1
 80006ba:	617b      	str	r3, [r7, #20]
 80006bc:	697b      	ldr	r3, [r7, #20]
 80006be:	2b06      	cmp	r3, #6
 80006c0:	ddf6      	ble.n	80006b0 <CAN_SendFrame+0x152>
}
 80006c2:	bf00      	nop
 80006c4:	bf00      	nop
 80006c6:	3718      	adds	r7, #24
 80006c8:	46bd      	mov	sp, r7
 80006ca:	bd80      	pop	{r7, pc}

080006cc <init_bare_metal>:

/**
 * Inicializa el microcontrolador para usar el pin PA8 como salida
 */
static void init_bare_metal(void) {
 80006cc:	b480      	push	{r7}
 80006ce:	af00      	add	r7, sp, #0
    // 1. Encender el reloj del puerto A (sin esto el puerto no funciona)
    RCC_AHB4ENR |= GPIOAEN;
 80006d0:	4b13      	ldr	r3, [pc, #76]	@ (8000720 <init_bare_metal+0x54>)
 80006d2:	681b      	ldr	r3, [r3, #0]
 80006d4:	4a12      	ldr	r2, [pc, #72]	@ (8000720 <init_bare_metal+0x54>)
 80006d6:	f043 0301 	orr.w	r3, r3, #1
 80006da:	6013      	str	r3, [r2, #0]

    // 2. Configurar PA8 como salida digital
    GPIOA_MODER &= ~(0x3 << (CAN_TX_PIN_N * 2));  // Limpia la configuración anterior
 80006dc:	4b11      	ldr	r3, [pc, #68]	@ (8000724 <init_bare_metal+0x58>)
 80006de:	681b      	ldr	r3, [r3, #0]
 80006e0:	4a10      	ldr	r2, [pc, #64]	@ (8000724 <init_bare_metal+0x58>)
 80006e2:	f423 3340 	bic.w	r3, r3, #196608	@ 0x30000
 80006e6:	6013      	str	r3, [r2, #0]
    GPIOA_MODER |= (0x1 << (CAN_TX_PIN_N * 2));   // Lo pone en modo salida
 80006e8:	4b0e      	ldr	r3, [pc, #56]	@ (8000724 <init_bare_metal+0x58>)
 80006ea:	681b      	ldr	r3, [r3, #0]
 80006ec:	4a0d      	ldr	r2, [pc, #52]	@ (8000724 <init_bare_metal+0x58>)
 80006ee:	f443 3380 	orr.w	r3, r3, #65536	@ 0x10000
 80006f2:	6013      	str	r3, [r2, #0]

    // 3. Configurar PA8 para velocidad muy alta (bordes limpios y rápidos)
    GPIOA_OSPEEDR &= ~(0x3 << (CAN_TX_PIN_N * 2));
 80006f4:	4b0c      	ldr	r3, [pc, #48]	@ (8000728 <init_bare_metal+0x5c>)
 80006f6:	681b      	ldr	r3, [r3, #0]
 80006f8:	4a0b      	ldr	r2, [pc, #44]	@ (8000728 <init_bare_metal+0x5c>)
 80006fa:	f423 3340 	bic.w	r3, r3, #196608	@ 0x30000
 80006fe:	6013      	str	r3, [r2, #0]
    GPIOA_OSPEEDR |= (0x3 << (CAN_TX_PIN_N * 2));
 8000700:	4b09      	ldr	r3, [pc, #36]	@ (8000728 <init_bare_metal+0x5c>)
 8000702:	681b      	ldr	r3, [r3, #0]
 8000704:	4a08      	ldr	r2, [pc, #32]	@ (8000728 <init_bare_metal+0x5c>)
 8000706:	f443 3340 	orr.w	r3, r3, #196608	@ 0x30000
 800070a:	6013      	str	r3, [r2, #0]

    // 4. Poner el pin en alto (estado de reposo del bus CAN)
    GPIOA_BSRR = PA8_SET;
 800070c:	4b07      	ldr	r3, [pc, #28]	@ (800072c <init_bare_metal+0x60>)
 800070e:	f44f 7280 	mov.w	r2, #256	@ 0x100
 8000712:	601a      	str	r2, [r3, #0]
}
 8000714:	bf00      	nop
 8000716:	46bd      	mov	sp, r7
 8000718:	f85d 7b04 	ldr.w	r7, [sp], #4
 800071c:	4770      	bx	lr
 800071e:	bf00      	nop
 8000720:	580244e0 	.word	0x580244e0
 8000724:	58020000 	.word	0x58020000
 8000728:	58020008 	.word	0x58020008
 800072c:	58020018 	.word	0x58020018

08000730 <main>:

// ============================================================================
// PROGRAMA PRINCIPAL
// ============================================================================

int main(void) {
 8000730:	b580      	push	{r7, lr}
 8000732:	b084      	sub	sp, #16
 8000734:	af00      	add	r7, sp, #0
    // Configurar el microcontrolador
    init_bare_metal();
 8000736:	f7ff ffc9 	bl	80006cc <init_bare_metal>

    // Crear una trama de ejemplo para enviar
    CAN_Frame_t tx_frame = {
 800073a:	4a09      	ldr	r2, [pc, #36]	@ (8000760 <main+0x30>)
 800073c:	463b      	mov	r3, r7
 800073e:	ca07      	ldmia	r2, {r0, r1, r2}
 8000740:	e883 0007 	stmia.w	r3, {r0, r1, r2}
        .Data = {0x11, 0x22, 0x33, 0x44, 0x55, 0x66, 0x77, 0x88}  // Los datos
    };

    // Bucle infinito: enviar tramas continuamente
    while (1) {
        CAN_SendFrame(&tx_frame);         // Envía la trama completa
 8000744:	463b      	mov	r3, r7
 8000746:	4618      	mov	r0, r3
 8000748:	f7ff ff09 	bl	800055e <CAN_SendFrame>
 800074c:	4b05      	ldr	r3, [pc, #20]	@ (8000764 <main+0x34>)
 800074e:	60fb      	str	r3, [r7, #12]
   __asm volatile (
 8000750:	68fb      	ldr	r3, [r7, #12]
 8000752:	3b01      	subs	r3, #1
 8000754:	d1fd      	bne.n	8000752 <main+0x22>
 8000756:	60fb      	str	r3, [r7, #12]
}
 8000758:	bf00      	nop
        CAN_SendFrame(&tx_frame);         // Envía la trama completa
 800075a:	bf00      	nop
 800075c:	e7f2      	b.n	8000744 <main+0x14>
 800075e:	bf00      	nop
 8000760:	080008a8 	.word	0x080008a8
 8000764:	00989680 	.word	0x00989680

08000768 <NMI_Handler>:
/******************************************************************************/
/**
  * @brief This function handles Non maskable interrupt.
  */
void NMI_Handler(void)
{
 8000768:	b480      	push	{r7}
 800076a:	af00      	add	r7, sp, #0
  /* USER CODE BEGIN NonMaskableInt_IRQn 0 */

  /* USER CODE END NonMaskableInt_IRQn 0 */
  /* USER CODE BEGIN NonMaskableInt_IRQn 1 */
   while (1)
 800076c:	bf00      	nop
 800076e:	e7fd      	b.n	800076c <NMI_Handler+0x4>

08000770 <HardFault_Handler>:

/**
  * @brief This function handles Hard fault interrupt.
  */
void HardFault_Handler(void)
{
 8000770:	b480      	push	{r7}
 8000772:	af00      	add	r7, sp, #0
  /* USER CODE BEGIN HardFault_IRQn 0 */

  /* USER CODE END HardFault_IRQn 0 */
  while (1)
 8000774:	bf00      	nop
 8000776:	e7fd      	b.n	8000774 <HardFault_Handler+0x4>

08000778 <MemManage_Handler>:

/**
  * @brief This function handles Memory management fault.
  */
void MemManage_Handler(void)
{
 8000778:	b480      	push	{r7}
 800077a:	af00      	add	r7, sp, #0
  /* USER CODE BEGIN MemoryManagement_IRQn 0 */

  /* USER CODE END MemoryManagement_IRQn 0 */
  while (1)
 800077c:	bf00      	nop
 800077e:	e7fd      	b.n	800077c <MemManage_Handler+0x4>

08000780 <BusFault_Handler>:

/**
  * @brief This function handles Pre-fetch fault, memory access fault.
  */
void BusFault_Handler(void)
{
 8000780:	b480      	push	{r7}
 8000782:	af00      	add	r7, sp, #0
  /* USER CODE BEGIN BusFault_IRQn 0 */

  /* USER CODE END BusFault_IRQn 0 */
  while (1)
 8000784:	bf00      	nop
 8000786:	e7fd      	b.n	8000784 <BusFault_Handler+0x4>

08000788 <UsageFault_Handler>:

/**
  * @brief This function handles Undefined instruction or illegal state.
  */
void UsageFault_Handler(void)
{
 8000788:	b480      	push	{r7}
 800078a:	af00      	add	r7, sp, #0
  /* USER CODE BEGIN UsageFault_IRQn 0 */

  /* USER CODE END UsageFault_IRQn 0 */
  while (1)
 800078c:	bf00      	nop
 800078e:	e7fd      	b.n	800078c <UsageFault_Handler+0x4>

08000790 <SVC_Handler>:

/**
  * @brief This function handles System service call via SWI instruction.
  */
void SVC_Handler(void)
{
 8000790:	b480      	push	{r7}
 8000792:	af00      	add	r7, sp, #0

  /* USER CODE END SVCall_IRQn 0 */
  /* USER CODE BEGIN SVCall_IRQn 1 */

  /* USER CODE END SVCall_IRQn 1 */
}
 8000794:	bf00      	nop
 8000796:	46bd      	mov	sp, r7
 8000798:	f85d 7b04 	ldr.w	r7, [sp], #4
 800079c:	4770      	bx	lr

0800079e <DebugMon_Handler>:

/**
  * @brief This function handles Debug monitor.
  */
void DebugMon_Handler(void)
{
 800079e:	b480      	push	{r7}
 80007a0:	af00      	add	r7, sp, #0

  /* USER CODE END DebugMonitor_IRQn 0 */
  /* USER CODE BEGIN DebugMonitor_IRQn 1 */

  /* USER CODE END DebugMonitor_IRQn 1 */
}
 80007a2:	bf00      	nop
 80007a4:	46bd      	mov	sp, r7
 80007a6:	f85d 7b04 	ldr.w	r7, [sp], #4
 80007aa:	4770      	bx	lr

080007ac <PendSV_Handler>:

/**
  * @brief This function handles Pendable request for system service.
  */
void PendSV_Handler(void)
{
 80007ac:	b480      	push	{r7}
 80007ae:	af00      	add	r7, sp, #0

  /* USER CODE END PendSV_IRQn 0 */
  /* USER CODE BEGIN PendSV_IRQn 1 */

  /* USER CODE END PendSV_IRQn 1 */
}
 80007b0:	bf00      	nop
 80007b2:	46bd      	mov	sp, r7
 80007b4:	f85d 7b04 	ldr.w	r7, [sp], #4
 80007b8:	4770      	bx	lr

080007ba <SysTick_Handler>:

/**
  * @brief This function handles System tick timer.
  */
void SysTick_Handler(void)
{
 80007ba:	b580      	push	{r7, lr}
 80007bc:	af00      	add	r7, sp, #0
  /* USER CODE BEGIN SysTick_IRQn 0 */

  /* USER CODE END SysTick_IRQn 0 */
  HAL_IncTick();
 80007be:	f000 f82f 	bl	8000820 <HAL_IncTick>
  /* USER CODE BEGIN SysTick_IRQn 1 */

  /* USER CODE END SysTick_IRQn 1 */
}
 80007c2:	bf00      	nop
 80007c4:	bd80      	pop	{r7, pc}
	...

080007c8 <Reset_Handler>:

    .section  .text.Reset_Handler
  .weak  Reset_Handler
  .type  Reset_Handler, %function
Reset_Handler:
  ldr   sp, =_estack      /* set stack pointer */
 80007c8:	f8df d038 	ldr.w	sp, [pc, #56]	@ 8000804 <LoopFillZerobss+0xe>

/* Call the ExitRun0Mode function to configure the power supply */
  bl  ExitRun0Mode
 80007cc:	f7ff fe32 	bl	8000434 <ExitRun0Mode>
/* Call the clock system initialization function.*/
  bl  SystemInit
 80007d0:	f7ff fd82 	bl	80002d8 <SystemInit>

/* Copy the data segment initializers from flash to SRAM */
  ldr r0, =_sdata
 80007d4:	480c      	ldr	r0, [pc, #48]	@ (8000808 <LoopFillZerobss+0x12>)
  ldr r1, =_edata
 80007d6:	490d      	ldr	r1, [pc, #52]	@ (800080c <LoopFillZerobss+0x16>)
  ldr r2, =_sidata
 80007d8:	4a0d      	ldr	r2, [pc, #52]	@ (8000810 <LoopFillZerobss+0x1a>)
  movs r3, #0
 80007da:	2300      	movs	r3, #0
  b LoopCopyDataInit
 80007dc:	e002      	b.n	80007e4 <LoopCopyDataInit>

080007de <CopyDataInit>:

CopyDataInit:
  ldr r4, [r2, r3]
 80007de:	58d4      	ldr	r4, [r2, r3]
  str r4, [r0, r3]
 80007e0:	50c4      	str	r4, [r0, r3]
  adds r3, r3, #4
 80007e2:	3304      	adds	r3, #4

080007e4 <LoopCopyDataInit>:

LoopCopyDataInit:
  adds r4, r0, r3
 80007e4:	18c4      	adds	r4, r0, r3
  cmp r4, r1
 80007e6:	428c      	cmp	r4, r1
  bcc CopyDataInit
 80007e8:	d3f9      	bcc.n	80007de <CopyDataInit>
/* Zero fill the bss segment. */
  ldr r2, =_sbss
 80007ea:	4a0a      	ldr	r2, [pc, #40]	@ (8000814 <LoopFillZerobss+0x1e>)
  ldr r4, =_ebss
 80007ec:	4c0a      	ldr	r4, [pc, #40]	@ (8000818 <LoopFillZerobss+0x22>)
  movs r3, #0
 80007ee:	2300      	movs	r3, #0
  b LoopFillZerobss
 80007f0:	e001      	b.n	80007f6 <LoopFillZerobss>

080007f2 <FillZerobss>:

FillZerobss:
  str  r3, [r2]
 80007f2:	6013      	str	r3, [r2, #0]
  adds r2, r2, #4
 80007f4:	3204      	adds	r2, #4

080007f6 <LoopFillZerobss>:

LoopFillZerobss:
  cmp r2, r4
 80007f6:	42a2      	cmp	r2, r4
  bcc FillZerobss
 80007f8:	d3fb      	bcc.n	80007f2 <FillZerobss>

/* Call static constructors */
    bl __libc_init_array
 80007fa:	f000 f825 	bl	8000848 <__libc_init_array>
/* Call the application's entry point.*/
  bl  main
 80007fe:	f7ff ff97 	bl	8000730 <main>
  bx  lr
 8000802:	4770      	bx	lr
  ldr   sp, =_estack      /* set stack pointer */
 8000804:	24080000 	.word	0x24080000
  ldr r0, =_sdata
 8000808:	24000000 	.word	0x24000000
  ldr r1, =_edata
 800080c:	24000004 	.word	0x24000004
  ldr r2, =_sidata
 8000810:	080008bc 	.word	0x080008bc
  ldr r2, =_sbss
 8000814:	24000004 	.word	0x24000004
  ldr r4, =_ebss
 8000818:	24000024 	.word	0x24000024

0800081c <ADC3_IRQHandler>:
 * @retval None
*/
    .section  .text.Default_Handler,"ax",%progbits
Default_Handler:
Infinite_Loop:
  b  Infinite_Loop
 800081c:	e7fe      	b.n	800081c <ADC3_IRQHandler>
	...

08000820 <HAL_IncTick>:
 * @note This function is declared as __weak to be overwritten in case of other
  *      implementations in user file.
  * @retval None
  */
__weak void HAL_IncTick(void)
{
 8000820:	b480      	push	{r7}
 8000822:	af00      	add	r7, sp, #0
  uwTick += (uint32_t)uwTickFreq;
 8000824:	4b06      	ldr	r3, [pc, #24]	@ (8000840 <HAL_IncTick+0x20>)
 8000826:	781b      	ldrb	r3, [r3, #0]
 8000828:	461a      	mov	r2, r3
 800082a:	4b06      	ldr	r3, [pc, #24]	@ (8000844 <HAL_IncTick+0x24>)
 800082c:	681b      	ldr	r3, [r3, #0]
 800082e:	4413      	add	r3, r2
 8000830:	4a04      	ldr	r2, [pc, #16]	@ (8000844 <HAL_IncTick+0x24>)
 8000832:	6013      	str	r3, [r2, #0]
}
 8000834:	bf00      	nop
 8000836:	46bd      	mov	sp, r7
 8000838:	f85d 7b04 	ldr.w	r7, [sp], #4
 800083c:	4770      	bx	lr
 800083e:	bf00      	nop
 8000840:	24000000 	.word	0x24000000
 8000844:	24000020 	.word	0x24000020

08000848 <__libc_init_array>:
 8000848:	b570      	push	{r4, r5, r6, lr}
 800084a:	4d0d      	ldr	r5, [pc, #52]	@ (8000880 <__libc_init_array+0x38>)
 800084c:	4c0d      	ldr	r4, [pc, #52]	@ (8000884 <__libc_init_array+0x3c>)
 800084e:	1b64      	subs	r4, r4, r5
 8000850:	10a4      	asrs	r4, r4, #2
 8000852:	2600      	movs	r6, #0
 8000854:	42a6      	cmp	r6, r4
 8000856:	d109      	bne.n	800086c <__libc_init_array+0x24>
 8000858:	4d0b      	ldr	r5, [pc, #44]	@ (8000888 <__libc_init_array+0x40>)
 800085a:	4c0c      	ldr	r4, [pc, #48]	@ (800088c <__libc_init_array+0x44>)
 800085c:	f000 f818 	bl	8000890 <_init>
 8000860:	1b64      	subs	r4, r4, r5
 8000862:	10a4      	asrs	r4, r4, #2
 8000864:	2600      	movs	r6, #0
 8000866:	42a6      	cmp	r6, r4
 8000868:	d105      	bne.n	8000876 <__libc_init_array+0x2e>
 800086a:	bd70      	pop	{r4, r5, r6, pc}
 800086c:	f855 3b04 	ldr.w	r3, [r5], #4
 8000870:	4798      	blx	r3
 8000872:	3601      	adds	r6, #1
 8000874:	e7ee      	b.n	8000854 <__libc_init_array+0xc>
 8000876:	f855 3b04 	ldr.w	r3, [r5], #4
 800087a:	4798      	blx	r3
 800087c:	3601      	adds	r6, #1
 800087e:	e7f2      	b.n	8000866 <__libc_init_array+0x1e>
 8000880:	080008b4 	.word	0x080008b4
 8000884:	080008b4 	.word	0x080008b4
 8000888:	080008b4 	.word	0x080008b4
 800088c:	080008b8 	.word	0x080008b8

08000890 <_init>:
 8000890:	b5f8      	push	{r3, r4, r5, r6, r7, lr}
 8000892:	bf00      	nop
 8000894:	bcf8      	pop	{r3, r4, r5, r6, r7}
 8000896:	bc08      	pop	{r3}
 8000898:	469e      	mov	lr, r3
 800089a:	4770      	bx	lr

0800089c <_fini>:
 800089c:	b5f8      	push	{r3, r4, r5, r6, r7, lr}
 800089e:	bf00      	nop
 80008a0:	bcf8      	pop	{r3, r4, r5, r6, r7}
 80008a2:	bc08      	pop	{r3}
 80008a4:	469e      	mov	lr, r3
 80008a6:	4770      	bx	lr
